target datalayout = "e-m:e-p270:32:32-p271:32:32-p272:64:64-i64:64-i128:128-f80:128-n8:16:32:64-S128"
target triple = "x86_64-unknown-linux-gnu"

%"struct.cvc5::internal::Minisat::SimpSolver::ClauseDeleted" = type { ptr }
%"struct.cvc5::internal::Minisat::SimpSolver::ElimLt" = type { ptr }
%"class.cvc5::internal::Minisat::vec.4" = type { ptr, i32, i32 }
%"class.cvc5::internal::Minisat::SimpSolver" = type <{ %"class.cvc5::internal::Minisat::Solver.base", [2 x i8], i32, i32, i32, double, i8, i8, [2 x i8], i32, i32, i32, i32, i8, [3 x i8], %"class.cvc5::internal::Minisat::vec.5", %"class.cvc5::internal::Minisat::vec.8", %"class.cvc5::internal::Minisat::OccLists.11", %"class.cvc5::internal::Minisat::vec.9", %"class.cvc5::internal::Minisat::Heap.13", %"class.cvc5::internal::Minisat::Queue", %"class.cvc5::internal::Minisat::vec.8", %"class.cvc5::internal::Minisat::vec.8", i32, i32, i32, [4 x i8] }>
%"class.cvc5::internal::Minisat::Solver.base" = type <{ %"class.cvc5::internal::EnvObj", ptr, ptr, i32, i32, i32, [4 x i8], %"class.std::unique_ptr", i8, [7 x i8], %"class.cvc5::internal::Minisat::vec", %"class.cvc5::internal::Minisat::vec.2", i8, i8, [6 x i8], %"class.cvc5::internal::Minisat::vec.3", %"class.cvc5::internal::Minisat::vec.4", i32, [4 x i8], double, double, double, double, i8, [3 x i8], i32, i32, i8, i8, [2 x i8], double, i32, [4 x i8], double, double, double, i32, [4 x i8], double, i64, i64, i64, i64, i64, i64, i64, i64, i64, i64, i64, i64, i8, [7 x i8], %"class.cvc5::internal::Minisat::vec.5", %"class.cvc5::internal::Minisat::vec.5", double, %"class.cvc5::internal::Minisat::vec.6", double, %"class.cvc5::internal::Minisat::OccLists", %"class.cvc5::internal::Minisat::vec.3", %"class.cvc5::internal::Minisat::vec.9", %"class.cvc5::internal::Minisat::vec.8", %"class.cvc5::internal::Minisat::vec.8", %"class.cvc5::internal::Minisat::vec.9", %"class.cvc5::internal::Minisat::vec.4", %"class.cvc5::internal::Minisat::vec.9", %"class.cvc5::internal::Minisat::vec.2", %"class.cvc5::internal::Minisat::vec.10", i32, i32, i64, %"class.cvc5::internal::Minisat::vec.4", %"class.cvc5::internal::Minisat::Heap", double, i8, [7 x i8], %"class.cvc5::internal::Minisat::ClauseAllocator", %"class.cvc5::internal::Minisat::vec.2", %"class.cvc5::internal::Minisat::vec.8", %"class.cvc5::internal::Minisat::vec.4", %"class.cvc5::internal::Minisat::vec.4", %"class.cvc5::internal::Minisat::vec.4", double, double, i32, [4 x i8], i64, i64, i8, i8 }>
%"class.cvc5::internal::EnvObj" = type { ptr, ptr }
%"class.std::unique_ptr" = type { %"struct.std::__uniq_ptr_data" }
%"struct.std::__uniq_ptr_data" = type { %"class.std::__uniq_ptr_impl" }
%"class.std::__uniq_ptr_impl" = type { %"class.std::tuple" }
%"class.std::tuple" = type { %"struct.std::_Tuple_impl" }
%"struct.std::_Tuple_impl" = type { %"struct.std::_Head_base.1" }
%"struct.std::_Head_base.1" = type { ptr }
%"class.cvc5::internal::Minisat::vec" = type { ptr, i32, i32 }
%"class.cvc5::internal::Minisat::vec.6" = type { ptr, i32, i32 }
%"class.cvc5::internal::Minisat::OccLists" = type { %"class.cvc5::internal::Minisat::vec.7", %"class.cvc5::internal::Minisat::vec.8", %"class.cvc5::internal::Minisat::vec.4", %"struct.cvc5::internal::Minisat::Solver::WatcherDeleted" }
%"class.cvc5::internal::Minisat::vec.7" = type { ptr, i32, i32 }
%"struct.cvc5::internal::Minisat::Solver::WatcherDeleted" = type { ptr }
%"class.cvc5::internal::Minisat::vec.3" = type { ptr, i32, i32 }
%"class.cvc5::internal::Minisat::vec.10" = type { ptr, i32, i32 }
%"class.cvc5::internal::Minisat::Heap" = type { %"struct.cvc5::internal::Minisat::Solver::VarOrderLt", %"class.cvc5::internal::Minisat::vec.9", %"class.cvc5::internal::Minisat::vec.9" }
%"struct.cvc5::internal::Minisat::Solver::VarOrderLt" = type { ptr }
%"class.cvc5::internal::Minisat::ClauseAllocator" = type { %"class.cvc5::internal::Minisat::RegionAllocator.base", i8, [3 x i8] }
%"class.cvc5::internal::Minisat::RegionAllocator.base" = type <{ ptr, i32, i32, i32 }>
%"class.cvc5::internal::Minisat::vec.2" = type { ptr, i32, i32 }
%"class.cvc5::internal::Minisat::vec.5" = type { ptr, i32, i32 }
%"class.cvc5::internal::Minisat::OccLists.11" = type { %"class.cvc5::internal::Minisat::vec.12", %"class.cvc5::internal::Minisat::vec.8", %"class.cvc5::internal::Minisat::vec.9", %"struct.cvc5::internal::Minisat::SimpSolver::ClauseDeleted" }
%"class.cvc5::internal::Minisat::vec.12" = type { ptr, i32, i32 }
%"class.cvc5::internal::Minisat::vec.9" = type { ptr, i32, i32 }
%"class.cvc5::internal::Minisat::Heap.13" = type { %"struct.cvc5::internal::Minisat::SimpSolver::ElimLt", %"class.cvc5::internal::Minisat::vec.9", %"class.cvc5::internal::Minisat::vec.9" }
%"class.cvc5::internal::Minisat::Queue" = type { %"class.cvc5::internal::Minisat::vec.5", i32, i32 }
%"class.cvc5::internal::Minisat::vec.8" = type { ptr, i32, i32 }

; Function Attrs: mustprogress nounwind uwtable
define linkonce_odr hidden void @_ZN4cvc58internal7Minisat3vecIjE5clearEb(ptr noundef nonnull align 8 dereferenceable(16) %this, i1 noundef zeroext %dealloc) #4 comdat align 2 {
entry:
  %this.addr = alloca ptr, align 8
  %dealloc.addr = alloca i8, align 1
  %i = alloca i32, align 4
  store ptr %this, ptr %this.addr, align 8
  %frombool = zext i1 %dealloc to i8
  store i8 %frombool, ptr %dealloc.addr, align 1
  %this1 = load ptr, ptr %this.addr, align 8
  %data = getelementptr inbounds %"class.cvc5::internal::Minisat::vec.5", ptr %this1, i32 0, i32 0
  %0 = load ptr, ptr %data, align 8
  %cmp = icmp ne ptr %0, null
  br i1 %cmp, label %if.then, label %if.end8

if.then:                                          ; preds = %entry
  store i32 0, ptr %i, align 4
  br label %for.cond

for.cond:                                         ; preds = %for.inc, %if.then
  %1 = load i32, ptr %i, align 4
  %sz = getelementptr inbounds %"class.cvc5::internal::Minisat::vec.5", ptr %this1, i32 0, i32 1
  %2 = load i32, ptr %sz, align 8
  %cmp2 = icmp slt i32 %1, %2
  br i1 %cmp2, label %for.body, label %for.end

for.body:                                         ; preds = %for.cond
  br label %for.inc

for.inc:                                          ; preds = %for.body
  %3 = load i32, ptr %i, align 4
  %inc = add nsw i32 %3, 1
  store i32 %inc, ptr %i, align 4
  br label %for.cond, !llvm.loop !50

for.end:                                          ; preds = %for.cond
  %sz4 = getelementptr inbounds %"class.cvc5::internal::Minisat::vec.5", ptr %this1, i32 0, i32 1
  store i32 0, ptr %sz4, align 8
  %4 = load i8, ptr %dealloc.addr, align 1
  %tobool = trunc i8 %4 to i1
  br i1 %tobool, label %if.then5, label %if.end

if.then5:                                         ; preds = %for.end
  %data6 = getelementptr inbounds %"class.cvc5::internal::Minisat::vec.5", ptr %this1, i32 0, i32 0
  %5 = load ptr, ptr %data6, align 8
  call void @free(ptr noundef %5) #3
  %data7 = getelementptr inbounds %"class.cvc5::internal::Minisat::vec.5", ptr %this1, i32 0, i32 0
  store ptr null, ptr %data7, align 8
  %cap = getelementptr inbounds %"class.cvc5::internal::Minisat::vec.5", ptr %this1, i32 0, i32 2
  store i32 0, ptr %cap, align 4
  br label %if.end

if.end:                                           ; preds = %if.then5, %for.end
  br label %if.end8

if.end8:                                          ; preds = %if.end, %entry
  ret void
}

; Function Attrs: mustprogress nounwind uwtable
define linkonce_odr hidden void @_ZN4cvc58internal7Minisat3vecIiE5clearEb(ptr noundef nonnull align 8 dereferenceable(16) %this, i1 noundef zeroext %dealloc) #4 comdat align 2 {
entry:
  %this.addr = alloca ptr, align 8
  %dealloc.addr = alloca i8, align 1
  %i = alloca i32, align 4
  store ptr %this, ptr %this.addr, align 8
  %frombool = zext i1 %dealloc to i8
  store i8 %frombool, ptr %dealloc.addr, align 1
  %this1 = load ptr, ptr %this.addr, align 8
  %data = getelementptr inbounds %"class.cvc5::internal::Minisat::vec.9", ptr %this1, i32 0, i32 0
  %0 = load ptr, ptr %data, align 8
  %cmp = icmp ne ptr %0, null
  br i1 %cmp, label %if.then, label %if.end8

if.then:                                          ; preds = %entry
  store i32 0, ptr %i, align 4
  br label %for.cond

for.cond:                                         ; preds = %for.inc, %if.then
  %1 = load i32, ptr %i, align 4
  %sz = getelementptr inbounds %"class.cvc5::internal::Minisat::vec.9", ptr %this1, i32 0, i32 1
  %2 = load i32, ptr %sz, align 8
  %cmp2 = icmp slt i32 %1, %2
  br i1 %cmp2, label %for.body, label %for.end

for.body:                                         ; preds = %for.cond
  br label %for.inc

for.inc:                                          ; preds = %for.body
  %3 = load i32, ptr %i, align 4
  %inc = add nsw i32 %3, 1
  store i32 %inc, ptr %i, align 4
  br label %for.cond, !llvm.loop !56

for.end:                                          ; preds = %for.cond
  %sz4 = getelementptr inbounds %"class.cvc5::internal::Minisat::vec.9", ptr %this1, i32 0, i32 1
  store i32 0, ptr %sz4, align 8
  %4 = load i8, ptr %dealloc.addr, align 1
  %tobool = trunc i8 %4 to i1
  br i1 %tobool, label %if.then5, label %if.end

if.then5:                                         ; preds = %for.end
  %data6 = getelementptr inbounds %"class.cvc5::internal::Minisat::vec.9", ptr %this1, i32 0, i32 0
  %5 = load ptr, ptr %data6, align 8
  call void @free(ptr noundef %5) #3
  %data7 = getelementptr inbounds %"class.cvc5::internal::Minisat::vec.9", ptr %this1, i32 0, i32 0
  store ptr null, ptr %data7, align 8
  %cap = getelementptr inbounds %"class.cvc5::internal::Minisat::vec.9", ptr %this1, i32 0, i32 2
  store i32 0, ptr %cap, align 4
  br label %if.end

if.end:                                           ; preds = %if.then5, %for.end
  br label %if.end8

if.end8:                                          ; preds = %if.end, %entry
  ret void
}

; Function Attrs: noreturn nounwind uwtable
define linkonce_odr hidden void @__clang_call_terminate(ptr noundef %0) #8 comdat {
  %2 = call ptr @__cxa_begin_catch(ptr %0) #3
  call void @_ZSt9terminatev() #15
  unreachable
}

; Function Attrs: mustprogress nounwind uwtable
define linkonce_odr hidden void @_ZN4cvc58internal7Minisat3vecIcE5clearEb(ptr noundef nonnull align 8 dereferenceable(16) %this, i1 noundef zeroext %dealloc) #4 comdat align 2 {
entry:
  %this.addr = alloca ptr, align 8
  %dealloc.addr = alloca i8, align 1
  %i = alloca i32, align 4
  store ptr %this, ptr %this.addr, align 8
  %frombool = zext i1 %dealloc to i8
  store i8 %frombool, ptr %dealloc.addr, align 1
  %this1 = load ptr, ptr %this.addr, align 8
  %data = getelementptr inbounds %"class.cvc5::internal::Minisat::vec.8", ptr %this1, i32 0, i32 0
  %0 = load ptr, ptr %data, align 8
  %cmp = icmp ne ptr %0, null
  br i1 %cmp, label %if.then, label %if.end8

if.then:                                          ; preds = %entry
  store i32 0, ptr %i, align 4
  br label %for.cond

for.cond:                                         ; preds = %for.inc, %if.then
  %1 = load i32, ptr %i, align 4
  %sz = getelementptr inbounds %"class.cvc5::internal::Minisat::vec.8", ptr %this1, i32 0, i32 1
  %2 = load i32, ptr %sz, align 8
  %cmp2 = icmp slt i32 %1, %2
  br i1 %cmp2, label %for.body, label %for.end

for.body:                                         ; preds = %for.cond
  br label %for.inc

for.inc:                                          ; preds = %for.body
  %3 = load i32, ptr %i, align 4
  %inc = add nsw i32 %3, 1
  store i32 %inc, ptr %i, align 4
  br label %for.cond, !llvm.loop !55

for.end:                                          ; preds = %for.cond
  %sz4 = getelementptr inbounds %"class.cvc5::internal::Minisat::vec.8", ptr %this1, i32 0, i32 1
  store i32 0, ptr %sz4, align 8
  %4 = load i8, ptr %dealloc.addr, align 1
  %tobool = trunc i8 %4 to i1
  br i1 %tobool, label %if.then5, label %if.end

if.then5:                                         ; preds = %for.end
  %data6 = getelementptr inbounds %"class.cvc5::internal::Minisat::vec.8", ptr %this1, i32 0, i32 0
  %5 = load ptr, ptr %data6, align 8
  call void @free(ptr noundef %5) #3
  %data7 = getelementptr inbounds %"class.cvc5::internal::Minisat::vec.8", ptr %this1, i32 0, i32 0
  store ptr null, ptr %data7, align 8
  %cap = getelementptr inbounds %"class.cvc5::internal::Minisat::vec.8", ptr %this1, i32 0, i32 2
  store i32 0, ptr %cap, align 4
  br label %if.end

if.end:                                           ; preds = %if.then5, %for.end
  br label %if.end8

if.end8:                                          ; preds = %if.end, %entry
  ret void
}

; Function Attrs: mustprogress nounwind uwtable
define linkonce_odr hidden void @_ZN4cvc58internal7Minisat3vecIjED2Ev(ptr noundef nonnull align 8 dereferenceable(16) %this) unnamed_addr #4 comdat align 2 personality ptr @__gxx_personality_v0 {
entry:
  %this.addr = alloca ptr, align 8
  store ptr %this, ptr %this.addr, align 8
  %this1 = load ptr, ptr %this.addr, align 8
  invoke void @_ZN4cvc58internal7Minisat3vecIjE5clearEb(ptr noundef nonnull align 8 dereferenceable(16) %this1, i1 noundef zeroext true)
          to label %invoke.cont unwind label %terminate.lpad

invoke.cont:                                      ; preds = %entry
  ret void

terminate.lpad:                                   ; preds = %entry
  %0 = landingpad { ptr, i32 }
          catch ptr null
  %1 = extractvalue { ptr, i32 } %0, 0
  call void @__clang_call_terminate(ptr %1) #15
  unreachable
}

; Function Attrs: mustprogress nounwind uwtable
define linkonce_odr hidden void @_ZN4cvc58internal7Minisat3vecIiED2Ev(ptr noundef nonnull align 8 dereferenceable(16) %this) unnamed_addr #4 comdat align 2 personality ptr @__gxx_personality_v0 {
entry:
  %this.addr = alloca ptr, align 8
  store ptr %this, ptr %this.addr, align 8
  %this1 = load ptr, ptr %this.addr, align 8
  invoke void @_ZN4cvc58internal7Minisat3vecIiE5clearEb(ptr noundef nonnull align 8 dereferenceable(16) %this1, i1 noundef zeroext true)
          to label %invoke.cont unwind label %terminate.lpad

invoke.cont:                                      ; preds = %entry
  ret void

terminate.lpad:                                   ; preds = %entry
  %0 = landingpad { ptr, i32 }
          catch ptr null
  %1 = extractvalue { ptr, i32 } %0, 0
  call void @__clang_call_terminate(ptr %1) #15
  unreachable
}

; Function Attrs: mustprogress nounwind uwtable
define linkonce_odr hidden void @_ZN4cvc58internal7Minisat4HeapINS1_10SimpSolver6ElimLtEED2Ev(ptr noundef nonnull align 8 dereferenceable(40) %this) unnamed_addr #4 comdat align 2 {
entry:
  %this.addr = alloca ptr, align 8
  store ptr %this, ptr %this.addr, align 8
  %this1 = load ptr, ptr %this.addr, align 8
  %indices = getelementptr inbounds %"class.cvc5::internal::Minisat::Heap.13", ptr %this1, i32 0, i32 2
  call void @_ZN4cvc58internal7Minisat3vecIiED2Ev(ptr noundef nonnull align 8 dereferenceable(16) %indices) #3
  %heap = getelementptr inbounds %"class.cvc5::internal::Minisat::Heap.13", ptr %this1, i32 0, i32 1
  call void @_ZN4cvc58internal7Minisat3vecIiED2Ev(ptr noundef nonnull align 8 dereferenceable(16) %heap) #3
  ret void
}

; Function Attrs: mustprogress nounwind uwtable
define linkonce_odr hidden void @_ZN4cvc58internal7Minisat5QueueIjED2Ev(ptr noundef nonnull align 8 dereferenceable(24) %this) unnamed_addr #4 comdat align 2 {
entry:
  %this.addr = alloca ptr, align 8
  store ptr %this, ptr %this.addr, align 8
  %this1 = load ptr, ptr %this.addr, align 8
  %buf = getelementptr inbounds %"class.cvc5::internal::Minisat::Queue", ptr %this1, i32 0, i32 0
  call void @_ZN4cvc58internal7Minisat3vecIjED2Ev(ptr noundef nonnull align 8 dereferenceable(16) %buf) #3
  ret void
}

; Function Attrs: mustprogress nounwind uwtable
define linkonce_odr hidden void @_ZN4cvc58internal7Minisat3vecIcED2Ev(ptr noundef nonnull align 8 dereferenceable(16) %this) unnamed_addr #4 comdat align 2 personality ptr @__gxx_personality_v0 {
entry:
  %this.addr = alloca ptr, align 8
  store ptr %this, ptr %this.addr, align 8
  %this1 = load ptr, ptr %this.addr, align 8
  invoke void @_ZN4cvc58internal7Minisat3vecIcE5clearEb(ptr noundef nonnull align 8 dereferenceable(16) %this1, i1 noundef zeroext true)
          to label %invoke.cont unwind label %terminate.lpad

invoke.cont:                                      ; preds = %entry
  ret void

terminate.lpad:                                   ; preds = %entry
  %0 = landingpad { ptr, i32 }
          catch ptr null
  %1 = extractvalue { ptr, i32 } %0, 0
  call void @__clang_call_terminate(ptr %1) #15
  unreachable
}

; Function Attrs: mustprogress nounwind uwtable
define hidden void @_ZN4cvc58internal7Minisat10SimpSolverD2Ev(ptr noundef nonnull align 8 dereferenceable(1108) %this) unnamed_addr #4 align 2 {
entry:
  %this.addr = alloca ptr, align 8
  store ptr %this, ptr %this.addr, align 8
  %this1 = load ptr, ptr %this.addr, align 8
  store ptr getelementptr inbounds ({ [5 x ptr] }, ptr @_ZTVN4cvc58internal7Minisat10SimpSolverE, i32 0, i32 0, i32 2), ptr %this1, align 8
  %eliminated = getelementptr inbounds %"class.cvc5::internal::Minisat::SimpSolver", ptr %this1, i32 0, i32 22
  call void @_ZN4cvc58internal7Minisat3vecIcED2Ev(ptr noundef nonnull align 8 dereferenceable(16) %eliminated) #3
  %frozen = getelementptr inbounds %"class.cvc5::internal::Minisat::SimpSolver", ptr %this1, i32 0, i32 21
  call void @_ZN4cvc58internal7Minisat3vecIcED2Ev(ptr noundef nonnull align 8 dereferenceable(16) %frozen) #3
  %subsumption_queue = getelementptr inbounds %"class.cvc5::internal::Minisat::SimpSolver", ptr %this1, i32 0, i32 20
  call void @_ZN4cvc58internal7Minisat5QueueIjED2Ev(ptr noundef nonnull align 8 dereferenceable(24) %subsumption_queue) #3
  %elim_heap = getelementptr inbounds %"class.cvc5::internal::Minisat::SimpSolver", ptr %this1, i32 0, i32 19
  call void @_ZN4cvc58internal7Minisat4HeapINS1_10SimpSolver6ElimLtEED2Ev(ptr noundef nonnull align 8 dereferenceable(40) %elim_heap) #3
  %n_occ = getelementptr inbounds %"class.cvc5::internal::Minisat::SimpSolver", ptr %this1, i32 0, i32 18
  call void @_ZN4cvc58internal7Minisat3vecIiED2Ev(ptr noundef nonnull align 8 dereferenceable(16) %n_occ) #3
  %occurs = getelementptr inbounds %"class.cvc5::internal::Minisat::SimpSolver", ptr %this1, i32 0, i32 17
  call void @_ZN4cvc58internal7Minisat8OccListsIiNS1_3vecIjEENS1_10SimpSolver13ClauseDeletedEED2Ev(ptr noundef nonnull align 8 dereferenceable(56) %occurs) #3
  %touched = getelementptr inbounds %"class.cvc5::internal::Minisat::SimpSolver", ptr %this1, i32 0, i32 16
  call void @_ZN4cvc58internal7Minisat3vecIcED2Ev(ptr noundef nonnull align 8 dereferenceable(16) %touched) #3
  %elimclauses = getelementptr inbounds %"class.cvc5::internal::Minisat::SimpSolver", ptr %this1, i32 0, i32 15
  call void @_ZN4cvc58internal7Minisat3vecIjED2Ev(ptr noundef nonnull align 8 dereferenceable(16) %elimclauses) #3
  call void @_ZN4cvc58internal7Minisat6SolverD2Ev(ptr noundef nonnull align 8 dereferenceable(850) %this1) #3
  ret void
}