; Function Attrs: mustprogress nounwind uwtable
define hidden void @_ZN4cvc58internal7Minisat10SimpSolverD2Ev(ptr noundef nonnull align 8 dereferenceable(1108) %this) unnamed_addr #3 align 2 personality ptr @__gxx_personality_v0 {
entry:
  store ptr getelementptr inbounds ({ [5 x ptr] }, ptr @_ZTVN4cvc58internal7Minisat10SimpSolverE, i64 0, i32 0, i64 2), ptr %this, align 8
  %eliminated = getelementptr inbounds i8, ptr %this, i64 1080
  %0 = load ptr, ptr %eliminated, align 8
  %cmp.not.i.i = icmp eq ptr %0, null
  br i1 %cmp.not.i.i, label %_ZN4cvc58internal7Minisat3vecIcED2Ev.exit, label %for.cond.preheader.i.i

for.cond.preheader.i.i:                           ; preds = %entry
  %sz.le.i.i = getelementptr inbounds i8, ptr %this, i64 1088
  store i32 0, ptr %sz.le.i.i, align 8
  tail call void @free(ptr noundef nonnull %0) #25
  store ptr null, ptr %eliminated, align 8
  %cap.i.i = getelementptr inbounds i8, ptr %this, i64 1092
  store i32 0, ptr %cap.i.i, align 4
  br label %_ZN4cvc58internal7Minisat3vecIcED2Ev.exit

_ZN4cvc58internal7Minisat3vecIcED2Ev.exit:        ; preds = %entry, %for.cond.preheader.i.i
  %frozen = getelementptr inbounds i8, ptr %this, i64 1064
  %1 = load ptr, ptr %frozen, align 8
  %cmp.not.i.i1 = icmp eq ptr %1, null
  br i1 %cmp.not.i.i1, label %_ZN4cvc58internal7Minisat3vecIcED2Ev.exit5, label %for.cond.preheader.i.i2

for.cond.preheader.i.i2:                          ; preds = %_ZN4cvc58internal7Minisat3vecIcED2Ev.exit
  %sz.le.i.i3 = getelementptr inbounds i8, ptr %this, i64 1072
  store i32 0, ptr %sz.le.i.i3, align 8
  tail call void @free(ptr noundef nonnull %1) #25
  store ptr null, ptr %frozen, align 8
  %cap.i.i4 = getelementptr inbounds i8, ptr %this, i64 1076
  store i32 0, ptr %cap.i.i4, align 4
  br label %_ZN4cvc58internal7Minisat3vecIcED2Ev.exit5

_ZN4cvc58internal7Minisat3vecIcED2Ev.exit5:       ; preds = %_ZN4cvc58internal7Minisat3vecIcED2Ev.exit, %for.cond.preheader.i.i2
  %subsumption_queue = getelementptr inbounds i8, ptr %this, i64 1040
  %2 = load ptr, ptr %subsumption_queue, align 8
  %cmp.not.i.i.i = icmp eq ptr %2, null
  br i1 %cmp.not.i.i.i, label %_ZN4cvc58internal7Minisat5QueueIjED2Ev.exit, label %for.cond.preheader.i.i.i

for.cond.preheader.i.i.i:                         ; preds = %_ZN4cvc58internal7Minisat3vecIcED2Ev.exit5
  %sz.le.i.i.i = getelementptr inbounds i8, ptr %this, i64 1048
  store i32 0, ptr %sz.le.i.i.i, align 8
  tail call void @free(ptr noundef nonnull %2) #25
  store ptr null, ptr %subsumption_queue, align 8
  %cap.i.i.i = getelementptr inbounds i8, ptr %this, i64 1052
  store i32 0, ptr %cap.i.i.i, align 4
  br label %_ZN4cvc58internal7Minisat5QueueIjED2Ev.exit

_ZN4cvc58internal7Minisat5QueueIjED2Ev.exit:      ; preds = %_ZN4cvc58internal7Minisat3vecIcED2Ev.exit5, %for.cond.preheader.i.i.i
  %indices.i = getelementptr inbounds i8, ptr %this, i64 1024
  %3 = load ptr, ptr %indices.i, align 8
  %cmp.not.i.i.i6 = icmp eq ptr %3, null
  br i1 %cmp.not.i.i.i6, label %_ZN4cvc58internal7Minisat3vecIiED2Ev.exit.i, label %for.cond.preheader.i.i.i7

for.cond.preheader.i.i.i7:                        ; preds = %_ZN4cvc58internal7Minisat5QueueIjED2Ev.exit
  %sz.le.i.i.i8 = getelementptr inbounds i8, ptr %this, i64 1032
  store i32 0, ptr %sz.le.i.i.i8, align 8
  tail call void @free(ptr noundef nonnull %3) #25
  store ptr null, ptr %indices.i, align 8
  %cap.i.i.i9 = getelementptr inbounds i8, ptr %this, i64 1036
  store i32 0, ptr %cap.i.i.i9, align 4
  br label %_ZN4cvc58internal7Minisat3vecIiED2Ev.exit.i

_ZN4cvc58internal7Minisat3vecIiED2Ev.exit.i:      ; preds = %for.cond.preheader.i.i.i7, %_ZN4cvc58internal7Minisat5QueueIjED2Ev.exit
  %heap.i = getelementptr inbounds i8, ptr %this, i64 1008
  %4 = load ptr, ptr %heap.i, align 8
  %cmp.not.i.i1.i = icmp eq ptr %4, null
  br i1 %cmp.not.i.i1.i, label %_ZN4cvc58internal7Minisat4HeapINS1_10SimpSolver6ElimLtEED2Ev.exit, label %for.cond.preheader.i.i2.i

for.cond.preheader.i.i2.i:                        ; preds = %_ZN4cvc58internal7Minisat3vecIiED2Ev.exit.i
  %sz.le.i.i3.i = getelementptr inbounds i8, ptr %this, i64 1016
  store i32 0, ptr %sz.le.i.i3.i, align 8
  tail call void @free(ptr noundef nonnull %4) #25
  store ptr null, ptr %heap.i, align 8
  %cap.i.i4.i = getelementptr inbounds i8, ptr %this, i64 1020
  store i32 0, ptr %cap.i.i4.i, align 4
  br label %_ZN4cvc58internal7Minisat4HeapINS1_10SimpSolver6ElimLtEED2Ev.exit

_ZN4cvc58internal7Minisat4HeapINS1_10SimpSolver6ElimLtEED2Ev.exit: ; preds = %_ZN4cvc58internal7Minisat3vecIiED2Ev.exit.i, %for.cond.preheader.i.i2.i
  %n_occ = getelementptr inbounds i8, ptr %this, i64 984
  %5 = load ptr, ptr %n_occ, align 8
  %cmp.not.i.i10 = icmp eq ptr %5, null
  br i1 %cmp.not.i.i10, label %_ZN4cvc58internal7Minisat3vecIiED2Ev.exit, label %for.cond.preheader.i.i11

for.cond.preheader.i.i11:                         ; preds = %_ZN4cvc58internal7Minisat4HeapINS1_10SimpSolver6ElimLtEED2Ev.exit
  %sz.le.i.i12 = getelementptr inbounds i8, ptr %this, i64 992
  store i32 0, ptr %sz.le.i.i12, align 8
  tail call void @free(ptr noundef nonnull %5) #25
  store ptr null, ptr %n_occ, align 8
  %cap.i.i13 = getelementptr inbounds i8, ptr %this, i64 996
  store i32 0, ptr %cap.i.i13, align 4
  br label %_ZN4cvc58internal7Minisat3vecIiED2Ev.exit

_ZN4cvc58internal7Minisat3vecIiED2Ev.exit:        ; preds = %_ZN4cvc58internal7Minisat4HeapINS1_10SimpSolver6ElimLtEED2Ev.exit, %for.cond.preheader.i.i11
  %occurs = getelementptr inbounds i8, ptr %this, i64 928
  tail call void @_ZN4cvc58internal7Minisat8OccListsIiNS1_3vecIjEENS1_10SimpSolver13ClauseDeletedEED2Ev(ptr noundef nonnull align 8 dereferenceable(56) %occurs) #25
  %touched = getelementptr inbounds i8, ptr %this, i64 912
  %6 = load ptr, ptr %touched, align 8
  %cmp.not.i.i14 = icmp eq ptr %6, null
  br i1 %cmp.not.i.i14, label %_ZN4cvc58internal7Minisat3vecIcED2Ev.exit18, label %for.cond.preheader.i.i15

for.cond.preheader.i.i15:                         ; preds = %_ZN4cvc58internal7Minisat3vecIiED2Ev.exit
  %sz.le.i.i16 = getelementptr inbounds i8, ptr %this, i64 920
  store i32 0, ptr %sz.le.i.i16, align 8
  tail call void @free(ptr noundef nonnull %6) #25
  store ptr null, ptr %touched, align 8
  %cap.i.i17 = getelementptr inbounds i8, ptr %this, i64 924
  store i32 0, ptr %cap.i.i17, align 4
  br label %_ZN4cvc58internal7Minisat3vecIcED2Ev.exit18

_ZN4cvc58internal7Minisat3vecIcED2Ev.exit18:      ; preds = %_ZN4cvc58internal7Minisat3vecIiED2Ev.exit, %for.cond.preheader.i.i15
  %elimclauses = getelementptr inbounds i8, ptr %this, i64 896
  %7 = load ptr, ptr %elimclauses, align 8
  %cmp.not.i.i19 = icmp eq ptr %7, null
  br i1 %cmp.not.i.i19, label %_ZN4cvc58internal7Minisat3vecIjED2Ev.exit, label %for.cond.preheader.i.i20

for.cond.preheader.i.i20:                         ; preds = %_ZN4cvc58internal7Minisat3vecIcED2Ev.exit18
  %sz.le.i.i21 = getelementptr inbounds i8, ptr %this, i64 904
  store i32 0, ptr %sz.le.i.i21, align 8
  tail call void @free(ptr noundef nonnull %7) #25
  store ptr null, ptr %elimclauses, align 8
  %cap.i.i22 = getelementptr inbounds i8, ptr %this, i64 908
  store i32 0, ptr %cap.i.i22, align 4
  br label %_ZN4cvc58internal7Minisat3vecIjED2Ev.exit

_ZN4cvc58internal7Minisat3vecIjED2Ev.exit:        ; preds = %_ZN4cvc58internal7Minisat3vecIcED2Ev.exit18, %for.cond.preheader.i.i20
  tail call void @_ZN4cvc58internal7Minisat6SolverD2Ev(ptr noundef nonnull align 8 dereferenceable(850) %this) #25
  ret void
}